; Function Attrs: mustprogress nofree norecurse nosync nounwind willreturn memory(argmem: read) uwtable
define hidden noundef zeroext i1 @_ZNK3ue222ComponentCondReference10repeatableEv(ptr nocapture noundef nonnull readonly align 8 dereferenceable(137) %this) unnamed_addr #9 align 2 {
entry:
  %children = getelementptr inbounds i8, ptr %this, i64 16
  %0 = load ptr, ptr %children, align 8
  %_M_finish.i.i = getelementptr inbounds i8, ptr %this, i64 24
  %1 = load ptr, ptr %_M_finish.i.i, align 8
  %cmp.i.i = icmp ne ptr %0, %1
  ret i1 %cmp.i.i
}